target datalayout = "e-m:e-p270:32:32-p271:32:32-p272:64:64-i64:64-i128:128-f80:128-n8:16:32:64-S128"
target triple = "x86_64-pc-linux-gnu"

@H5B_init_g = global i8 0, align 1
@H5_libterm_g = external global i8, align 1
@.str.3 = private unnamed_addr constant [97 x i8] c"generated/home/dtcxzyw/WorkSpace/Projects/compilers/llvm-opt-benchmark/bench/hdf5/hdf5/src/H5B.c\00", align 1
@H5E_BTREE_g = external global i64, align 8
@__func__.H5B_remove = private unnamed_addr constant [11 x i8] c"H5B_remove\00", align 1
@H5E_CANTREMOVE_g = external global i64, align 8
@.str.25 = private unnamed_addr constant [35 x i8] c"unable to remove entry from B-tree\00", align 1

; Function Attrs: nounwind uwtable
define i32 @H5B_remove(ptr noundef %0, ptr noundef %1, i64 noundef %2, ptr noundef %3) #0 {
  %5 = alloca ptr, align 8
  %6 = alloca ptr, align 8
  %7 = alloca i64, align 8
  %8 = alloca ptr, align 8
  %9 = alloca [128 x i64], align 16
  %10 = alloca [128 x i64], align 16
  %11 = alloca ptr, align 8
  %12 = alloca ptr, align 8
  %13 = alloca i8, align 1
  %14 = alloca i8, align 1
  %15 = alloca i32, align 4
  %16 = alloca i8, align 1
  store ptr %0, ptr %5, align 8, !tbaa !3
  store ptr %1, ptr %6, align 8, !tbaa !8
  store i64 %2, ptr %7, align 8, !tbaa !23
  store ptr %3, ptr %8, align 8, !tbaa !10
  call void @llvm.lifetime.start.p0(i64 1024, ptr %9) #6
  call void @llvm.lifetime.start.p0(i64 1024, ptr %10) #6
  call void @llvm.lifetime.start.p0(i64 8, ptr %11) #6
  %17 = getelementptr inbounds [128 x i64], ptr %9, i64 0, i64 0
  store ptr %17, ptr %11, align 8, !tbaa !63
  call void @llvm.lifetime.start.p0(i64 8, ptr %12) #6
  %18 = getelementptr inbounds [128 x i64], ptr %10, i64 0, i64 0
  store ptr %18, ptr %12, align 8, !tbaa !63
  call void @llvm.lifetime.start.p0(i64 1, ptr %13) #6
  store i8 0, ptr %13, align 1, !tbaa !19
  call void @llvm.lifetime.start.p0(i64 1, ptr %14) #6
  store i8 0, ptr %14, align 1, !tbaa !19
  call void @llvm.lifetime.start.p0(i64 4, ptr %15) #6
  store i32 0, ptr %15, align 4, !tbaa !17
  call void @llvm.lifetime.start.p0(i64 1, ptr %16) #6
  store i8 0, ptr %16, align 1, !tbaa !19
  %19 = load i8, ptr @H5B_init_g, align 1, !tbaa !19, !range !21, !noundef !22
  %20 = trunc i8 %19 to i1
  br i1 %20, label %25, label %21

21:                                               ; preds = %4
  %22 = load i8, ptr @H5_libterm_g, align 1, !tbaa !19, !range !21, !noundef !22
  %23 = trunc i8 %22 to i1
  %24 = xor i1 %23, true
  br label %25

25:                                               ; preds = %21, %4
  %26 = phi i1 [ false, %4 ], [ %24, %21 ]
  %27 = xor i1 %26, true
  %28 = xor i1 %27, true
  %29 = zext i1 %28 to i32
  %30 = sext i32 %29 to i64
  %31 = call i64 @llvm.expect.i64(i64 %30, i64 0)
  %32 = icmp ne i64 %31, 0
  br i1 %32, label %33, label %34

33:                                               ; preds = %25
  store i8 1, ptr @H5B_init_g, align 1, !tbaa !19
  br label %34

34:                                               ; preds = %33, %25
  %35 = load i8, ptr @H5B_init_g, align 1, !tbaa !19, !range !21, !noundef !22
  %36 = trunc i8 %35 to i1
  br i1 %36, label %41, label %37

37:                                               ; preds = %34
  %38 = load i8, ptr @H5_libterm_g, align 1, !tbaa !19, !range !21, !noundef !22
  %39 = trunc i8 %38 to i1
  %40 = xor i1 %39, true
  br label %41

41:                                               ; preds = %37, %34
  %42 = phi i1 [ true, %34 ], [ %40, %37 ]
  %43 = xor i1 %42, true
  %44 = xor i1 %43, true
  %45 = zext i1 %44 to i32
  %46 = sext i32 %45 to i64
  %47 = call i64 @llvm.expect.i64(i64 %46, i64 1)
  %48 = icmp ne i64 %47, 0
  br i1 %48, label %49, label %79

49:                                               ; preds = %41
  %50 = load ptr, ptr %5, align 8, !tbaa !3
  %51 = load i64, ptr %7, align 8, !tbaa !23
  %52 = load ptr, ptr %6, align 8, !tbaa !8
  %53 = load ptr, ptr %11, align 8, !tbaa !63
  %54 = load ptr, ptr %8, align 8, !tbaa !10
  %55 = load ptr, ptr %12, align 8, !tbaa !63
  %56 = call i32 @H5B__remove_helper(ptr noundef %50, i64 noundef %51, ptr noundef %52, i32 noundef 0, ptr noundef %53, ptr noundef %13, ptr noundef %54, ptr noundef %55, ptr noundef %14)
  %57 = icmp eq i32 -1, %56
  br i1 %57, label %58, label %77

58:                                               ; preds = %49
  br label %59

59:                                               ; preds = %58
  br label %60

60:                                               ; preds = %59
  br label %61

61:                                               ; preds = %60
  %62 = load i64, ptr @H5E_BTREE_g, align 8, !tbaa !23
  %63 = load i64, ptr @H5E_CANTREMOVE_g, align 8, !tbaa !23
  %64 = call i32 (ptr, ptr, i32, i64, i64, ptr, ...) @H5E_printf_stack(ptr noundef @.str.3, ptr noundef @__func__.H5B_remove, i32 noundef 1510, i64 noundef %62, i64 noundef %63, ptr noundef @.str.25)
  br label %65

65:                                               ; preds = %61
  br label %66

66:                                               ; preds = %65
  store i8 1, ptr %16, align 1, !tbaa !19
  %67 = load i8, ptr %16, align 1, !tbaa !19, !range !21, !noundef !22
  %68 = trunc i8 %67 to i1
  %69 = zext i1 %68 to i8
  store i8 %69, ptr %16, align 1, !tbaa !19
  br label %70

70:                                               ; preds = %66
  br label %71

71:                                               ; preds = %70
  br label %72

72:                                               ; preds = %71
  store i32 -1, ptr %15, align 4, !tbaa !17
  br label %78

73:                                               ; No predecessors!
  br label %74

74:                                               ; preds = %73
  br label %75

75:                                               ; preds = %74
  br label %76

76:                                               ; preds = %75
  br label %77

77:                                               ; preds = %76, %49
  br label %78

78:                                               ; preds = %77, %72
  br label %79

79:                                               ; preds = %78, %41
  %80 = load i32, ptr %15, align 4, !tbaa !17
  call void @llvm.lifetime.end.p0(i64 1, ptr %16) #6
  call void @llvm.lifetime.end.p0(i64 4, ptr %15) #6
  call void @llvm.lifetime.end.p0(i64 1, ptr %14) #6
  call void @llvm.lifetime.end.p0(i64 1, ptr %13) #6
  call void @llvm.lifetime.end.p0(i64 8, ptr %12) #6
  call void @llvm.lifetime.end.p0(i64 8, ptr %11) #6
  call void @llvm.lifetime.end.p0(i64 1024, ptr %10) #6
  call void @llvm.lifetime.end.p0(i64 1024, ptr %9) #6
  ret i32 %80
}