; Function Attrs: nounwind uwtable
define range(i32 -1, 1) i32 @H5B_remove(ptr noundef %0, ptr noundef %1, i64 noundef %2, ptr noundef %3) local_unnamed_addr #0 {
  %5 = alloca [128 x i64], align 16
  %6 = alloca [128 x i64], align 16
  %7 = alloca i8, align 1
  %8 = alloca i8, align 1
  call void @llvm.lifetime.start.p0(i64 1024, ptr nonnull %5) #6
  call void @llvm.lifetime.start.p0(i64 1024, ptr nonnull %6) #6
  call void @llvm.lifetime.start.p0(i64 1, ptr nonnull %7) #6
  store i8 0, ptr %7, align 1, !tbaa !3
  call void @llvm.lifetime.start.p0(i64 1, ptr nonnull %8) #6
  store i8 0, ptr %8, align 1, !tbaa !3
  %9 = load i8, ptr @H5B_init_g, align 1, !tbaa !3, !range !7, !noundef !8
  %10 = trunc nuw i8 %9 to i1
  %11 = load i8, ptr @H5_libterm_g, align 1, !range !7
  %12 = trunc nuw i8 %11 to i1
  %13 = select i1 %10, i1 true, i1 %12
  br i1 %13, label %14, label %.thread, !prof !9

.thread:                                          ; preds = %4
  store i8 1, ptr @H5B_init_g, align 1, !tbaa !3
  br label %17

14:                                               ; preds = %4
  %15 = xor i1 %12, true
  %16 = select i1 %10, i1 true, i1 %15
  br i1 %16, label %17, label %24, !prof !10

17:                                               ; preds = %.thread, %14
  %18 = call fastcc i32 @H5B__remove_helper(ptr noundef %0, i64 noundef %2, ptr noundef %1, i32 noundef 0, ptr noundef nonnull %5, ptr noundef %7, ptr noundef %3, ptr noundef nonnull %6, ptr noundef %8)
  %19 = icmp eq i32 %18, -1
  br i1 %19, label %20, label %24

20:                                               ; preds = %17
  %21 = load i64, ptr @H5E_BTREE_g, align 8, !tbaa !29
  %22 = load i64, ptr @H5E_CANTREMOVE_g, align 8, !tbaa !29
  %23 = call i32 (ptr, ptr, i32, i64, i64, ptr, ...) @H5E_printf_stack(ptr noundef nonnull @.str.3, ptr noundef nonnull @__func__.H5B_remove, i32 noundef 1510, i64 noundef %21, i64 noundef %22, ptr noundef nonnull @.str.25) #6
  br label %24

24:                                               ; preds = %20, %17, %14
  %.0 = phi i32 [ -1, %20 ], [ 0, %17 ], [ 0, %14 ]
  call void @llvm.lifetime.end.p0(i64 1, ptr nonnull %8) #6
  call void @llvm.lifetime.end.p0(i64 1, ptr nonnull %7) #6
  call void @llvm.lifetime.end.p0(i64 1024, ptr nonnull %6) #6
  call void @llvm.lifetime.end.p0(i64 1024, ptr nonnull %5) #6
  ret i32 %.0
}